; Function Attrs: nounwind uwtable
define ptr @l_Array_mapMUnsafe_map___at___private_Lean_Widget_InteractiveDiagnostic_0__Lean_Widget_msgToInteractiveAux_go___spec__1___boxed(ptr noundef %0, ptr noundef %1, ptr noundef %2, ptr noundef %3, ptr noundef %4, ptr noundef %5, ptr noundef %6) local_unnamed_addr #0 {
  %8 = getelementptr i8, ptr %2, i64 8
  %.val14 = load i64, ptr %8, align 8, !tbaa !11
  %9 = ptrtoint ptr %2 to i64
  %10 = and i64 %9, 1
  %.not = icmp eq i64 %10, 0
  br i1 %.not, label %11, label %lean_dec.exit11

11:                                               ; preds = %7
  %12 = load i32, ptr %2, align 4, !tbaa !4
  %13 = icmp sgt i32 %12, 1
  br i1 %13, label %14, label %16, !prof !15

14:                                               ; preds = %11
  %15 = add nsw i32 %12, -1
  store i32 %15, ptr %2, align 4, !tbaa !4
  br label %lean_dec.exit11

16:                                               ; preds = %11
  %.not.i = icmp eq i32 %12, 0
  br i1 %.not.i, label %lean_dec.exit11, label %17

17:                                               ; preds = %16
  tail call void @lean_dec_ref_cold(ptr noundef nonnull %2) #7
  br label %lean_dec.exit11

lean_dec.exit11:                                  ; preds = %17, %16, %14, %7
  %18 = getelementptr i8, ptr %3, i64 8
  %.val = load i64, ptr %18, align 8, !tbaa !11
  %19 = ptrtoint ptr %3 to i64
  %20 = and i64 %19, 1
  %.not15 = icmp eq i64 %20, 0
  br i1 %.not15, label %21, label %lean_dec.exit

21:                                               ; preds = %lean_dec.exit11
  %22 = load i32, ptr %3, align 4, !tbaa !4
  %23 = icmp sgt i32 %22, 1
  br i1 %23, label %24, label %26, !prof !15

24:                                               ; preds = %21
  %25 = add nsw i32 %22, -1
  store i32 %25, ptr %3, align 4, !tbaa !4
  br label %lean_dec.exit

26:                                               ; preds = %21
  %.not.i12 = icmp eq i32 %22, 0
  br i1 %.not.i12, label %lean_dec.exit, label %27

27:                                               ; preds = %26
  tail call void @lean_dec_ref_cold(ptr noundef nonnull %3) #7
  br label %lean_dec.exit

lean_dec.exit:                                    ; preds = %27, %26, %24, %lean_dec.exit11
  %28 = tail call ptr @l_Array_mapMUnsafe_map___at___private_Lean_Widget_InteractiveDiagnostic_0__Lean_Widget_msgToInteractiveAux_go___spec__1(ptr noundef %0, ptr noundef %1, i64 noundef %.val14, i64 noundef %.val, ptr noundef %4, ptr noundef %5, ptr noundef %6)
  ret ptr %28
}